; navocore.def : Declares the module parameters for the DLL.

;LIBRARY      "navo2012.core" BASE=0x60080000

EXPORTS
	DllCanUnloadNow PRIVATE
	DllGetClassObject PRIVATE
	DllRegisterServer PRIVATE
	DllUnregisterServer PRIVATE

?GetThisClass@CCmdTargetInterface@@SGPAUCRuntimeClass@@XZ
?GetInterfaceMap@CCmdTargetWithErrorInfo@@MBEPBUAFX_INTERFACEMAP@@XZ
?GetRuntimeClass@CCmdTargetInterface@@UBEPAUCRuntimeClass@@XZ
?Release@XNavoErrorInfo@CCmdTargetWithErrorInfo@@UAGKXZ
?AddRef@XNavoErrorInfo@CCmdTargetWithErrorInfo@@UAGKXZ
?QueryInterface@XNavoErrorInfo@CCmdTargetWithErrorInfo@@UAGJABU_GUID@@PAPAX@Z
?AddRef@XStream@CFileStream@@UAGKXZ
?RetrieveError@CGenericErrorStorage@@QAEJPAJPAPAE@Z
?ThrowNavoAutomationExceptionFromInfoInternal@@YAXPBDJABVCNavoException@@@Z
?ThrowNavoExceptionInternal@@YAXPBDJW4errorcode@@JZZ
?GetNullDateSOV@@YAABVCSmartOleVariant@@XZ
??0CWinVersion@@QAE@XZ
?ThrowFromErrorInfo@@YAXJPAUIErrorInfo@@@Z
?GetThisInterfaceMap@CCmdTargetWithErrorInfo@@KGPBUAFX_INTERFACEMAP@@XZ
??0CHyperLinkInfo@@QAE@XZ
?IStream_CopyTo@@YAJPAUIStream@@0T_ULARGE_INTEGER@@PAT2@2@Z
?SCODE_To_String@@YA?AV?$CStringT@DV?$StrTraitMFC_DLL@DV?$ChTraitsCRT@D@ATL@@@@@ATL@@J@Z
?GetSupportRegistryKeyName@@YAPBDXZ
?ContinueThrowNavoExceptionInternal@@YAXPBDJAAVCNavoException@@W4errorcode@@JZZ
?UncompressStream@@YA?AV?$SCP@UIStream@@@@AAV1@@Z
?Variant2BinaryHelper@@YAJJABVCSmartOleVariant@@PAE@Z
?ErrorInfoFromInterface@@YA_NPAUIUnknown@@AAVCNavoErrorInfo@@@Z
?DispatchInvoke@@YAJPAUIDispatch@@JPAVCSmartOleVariant@@J1PAUtagEXCEPINFO@@@Z
?NavoFormatErrorMsg@@YAXAAV?$CStringT@DV?$StrTraitMFC_DLL@DV?$ChTraitsCRT@D@ATL@@@@@ATL@@W4errorcode@@ZZ
?EnsureType@CSmartOleVariant@@QBEXG@Z
?ThrowUnexpectedVariantType@CSmartOleVariant@@ABEXG@Z
?SafeGetRegistryKeyString@@YAJPAUHKEY__@@PBD1AAV?$CStringT@DV?$StrTraitMFC_DLL@DV?$ChTraitsCRT@D@ATL@@@@@ATL@@@Z
?OpenURLStream@@YA?AV?$SCP@UIStream@@@@PBD@Z
?GetInterfaceMap@CFileStream@@MBEPBUAFX_INTERFACEMAP@@XZ
?GetDispatchMap@CFileStream@@MBEPBUAFX_DISPMAP@@XZ
?_CreateFile@CFileStream@@IAEXKKKK@Z
?Stat@XStream@CFileStream@@UAGJPAUtagSTATSTG@@K@Z
?Release@XStream@CFileStream@@UAGKXZ
?QueryInterface@XStream@CFileStream@@UAGJABU_GUID@@PAPAX@Z
?SafeSetRegistryKeyString@@YAJPAUHKEY__@@PBD11@Z
?GetLastError_To_String@@YA?AV?$CStringT@DV?$StrTraitMFC_DLL@DV?$ChTraitsCRT@D@ATL@@@@@ATL@@K@Z
?TryToRemove@CFileRemover@@IAEXXZ
?SaveStreamToFile@@YAXAAV?$SCP@UIStream@@@@PBD_N_K@Z
?SaveStreamToFile@@YAJAAV?$SCP@UIStream@@@@PAVCFile@@PAUINotificationSink@@J@Z
?GetStreamSize@@YAJPAUIStream@@@Z
?get_stream_size64@@YA_JPAUIStream@@@Z
?packbuffer@@YAXPAEPAKPBEK@Z
??0CBase64CoDec@@QAE@PBD@Z
?RegisterDLL@@YAJPBD@Z
?UnregisterDLL@@YAJPBD@Z
?StringToUTF8@@YAXPBDAAV?$CStringT@DV?$StrTraitMFC_DLL@DV?$ChTraitsCRT@D@ATL@@@@@ATL@@@Z
??0CPerformingDialogHolder@@QAE@PBDPAUHWND__@@@Z
?unpackbuffer@@YAXPAEPAKPBEK@Z
??1CBase64CoDec@@QAE@XZ
?Encoded@CBase64CoDec@@QBEPBDXZ
??0CBase64CoDec@@QAE@PBXJ@Z
?Decoded@CBase64CoDec@@QBEPBXAAK@Z
?EnumRegistryKeys@@YAJPAUHKEY__@@PBDAAV?$CArray@V?$CStringT@DV?$StrTraitMFC_DLL@DV?$ChTraitsCRT@D@ATL@@@@@ATL@@PBD@@@Z
?ExecuteProcess@@YA?AW4errorcode@@PBD00JAAJ_N@Z
?RecursiveDeleteRegistryKey@@YAKPAUHKEY__@@PBD@Z
?GenerateUniqueFileName@@YA?AV?$CStringT@DV?$StrTraitMFC_DLL@DV?$ChTraitsCRT@D@ATL@@@@@ATL@@PBD0@Z
?OleDate2Parts@@YAXABVCOleDateTime@ATL@@AAH11111@Z
?GetSetupRegistryKeyName@@YAPBDXZ
?Variant2SQLString@@YA?AV?$CStringT@DV?$StrTraitMFC_DLL@DV?$ChTraitsCRT@D@ATL@@@@@ATL@@ABVCSmartOleVariant@@@Z
?GetNullTimeSOV@@YAABVCSmartOleVariant@@XZ
?Variant2Display@@YA_NABVCSmartOleVariant@@AAV?$CStringT@DV?$StrTraitMFC_DLL@DV?$ChTraitsCRT@D@ATL@@@@@ATL@@PAX@Z
?StoreMsg@CDebugger@@QAAXPBDZZ
?GetDebugOptions@@YAAAVCDebugOptions@@XZ
?GetDebugger@@YAAAVCDebugger@@XZ
?ThrowCannotChangeType@CSmartOleVariant@@AAEXG@Z
?IncDecIndent@CDebugger@@QAEXJ@Z
?ThrowNoMemory@CSmartOleVariant@@AAEXXZ
?_fill_excepinfo@@YAXPAUtagEXCEPINFO@@ABVCNavoException@@@Z
?Binary2VariantHelper@@YAJJAAVCSmartOleVariant@@PAE@Z
?GetSystemEnvironmentHLI@@YA?AV?$SCP@VCHyperLinkInfo@@@@XZ
?WriteToString@CHyperLinkInfo@@QBE?AV?$CStringT@DV?$StrTraitMFC_DLL@DV?$ChTraitsCRT@D@ATL@@@@@ATL@@_N@Z
?ReplaceFormalParam@@YA?AV?$CStringT@DV?$StrTraitMFC_DLL@DV?$ChTraitsCRT@D@ATL@@@@@ATL@@PBDPAVCHyperLinkInfo@@@Z
??0CHyperLinkInfo@@QAE@ABV0@@Z
?ReadHLIFromString@@YA?AV?$SCP@VCHyperLinkInfo@@@@ABV?$CStringT@DV?$StrTraitMFC_DLL@DV?$ChTraitsCRT@D@ATL@@@@@ATL@@V1@@Z
?FromIDispatch@CHyperLinkInfo@@SA?AV?$SCP@VCHyperLinkInfo@@@@PAUIDispatch@@@Z
?SplitString@@YAAAVCStringArray@@ABV?$CStringT@DV?$StrTraitMFC_DLL@DV?$ChTraitsCRT@D@ATL@@@@@ATL@@AAV1@D_N@Z
?SetText@CPerformingDialogHolder@@QAEXPBD@Z
?CacheMemoryStreamData@CNavoOleDataSource@@QAEXGAAV?$SCP@UIStream@@@@@Z
??0CNavoThread@@QAE@W4EType@CNavoOleInitHolder@@@Z
?BuildCompleteErrorString@CNavoException@@QBE?AV?$CStringT@DV?$StrTraitMFC_DLL@DV?$ChTraitsCRT@D@ATL@@@@@ATL@@XZ
?GetNAVO2001EngineVersion@@YAPBDXZ
??1CNavoOleInitHolder@@UAE@XZ
??0CNavoOleInitHolder@@QAE@W4EType@0@@Z
?CleanNavoTemporaryFiles@@YAXXZ
?Do@CParametersSplitter@@AAEXPBD@Z
?is_memory_low@@YA_NXZ
?GetClipBoardFormat@CNavoOleDataSource@@SAIW4navoCF@@@Z
?GetUpdateSubDir@@YAPBDXZ
?QueryNotificationManagerClients@@YAJAAV?$SCP@UINotificationManager@@@@AAVCClientInfoArray@@@Z
?IsSetupAppName@@YA_NPBD@Z
?IsSlowConnection_Registry@@YA_NXZ
?NavoCreateDirectoryTree@@YAXV?$CStringT@DV?$StrTraitMFC_DLL@DV?$ChTraitsCRT@D@ATL@@@@@ATL@@@Z
?GetInterfaceMap@CSupplyInfo__@@MBEPBUAFX_INTERFACEMAP@@XZ
?GetDispatchMap@CSupplyInfo__@@MBEPBUAFX_DISPMAP@@XZ
?Release@XSupplyInfo@CSupplyInfo__@@UAGKXZ
?AddRef@XSupplyInfo@CSupplyInfo__@@UAGKXZ
?QueryInterface@XSupplyInfo@CSupplyInfo__@@UAGJABU_GUID@@PAPAX@Z
?SafeSetRegistryKeyBinary@@YAJPAUHKEY__@@PBD1PBXJ@Z
?FromIDispatch@CPropertyProvider__@@SA?AV?$SCP@VCPropertyProvider__@@@@PAUIDispatch@@@Z
?ReadLine@CBufferToFile@@QAEJAAV?$CArray@DAAD@@_N@Z
?ParsePropertyName@@YA_NPBDAAJAAGAAPBD3@Z
?CompressStream@@YA?AV?$SCP@UIStream@@@@AAV1@@Z
?GetApplicationsRegistryKeyName@@YAPBDXZ
?GetSetupAppName@@YAPBDXZ
?NavoCreateDirectory@@YAXPBD@Z
?NavoRemoveDirectoryTree@@YA_NV?$CStringT@DV?$StrTraitMFC_DLL@DV?$ChTraitsCRT@D@ATL@@@@@ATL@@_N1@Z
?GetDatabaseRegistryKeyName@@YAPBDXZ
?SafeGetRegistryKeyDword@@YAJPAUHKEY__@@PBD1AAK@Z
?NavoDeleteFile@@YA_NPBD@Z
?GetNAVO2001RootRegistryKeyName@@YAPBDXZ
?__Advise@CPingServerImpl@@QAEXPAUIUnknown@@J@Z
?__UnAdvise@CPingServerImpl@@QAEXJ@Z
?UnRegisterServer@CNavoClassFactory@@QAEXXZ
?GetInterfaceMap@CNavoClassFactory@@MBEPBUAFX_INTERFACEMAP@@XZ
?Release@XClassFactory@CNavoClassFactory@@UAGKXZ
?AddRef@XClassFactory@CNavoClassFactory@@UAGKXZ
?QueryInterface@XClassFactory@CNavoClassFactory@@UAGJABU_GUID@@PAPAX@Z
??1CPingServerImpl@@QAE@XZ
?RegisterServer@CNavoClassFactory@@QAEXXZ
?__PerformPingTest@CPingServerImpl@@QAEXAAVCNavoLog@@@Z
?Base64EncodeStream@@YA?AV?$SCP@UIStream@@@@AAV1@@Z
?Base64DecodeStream@@YA?AV?$SCP@UIStream@@@@AAV1@@Z
?SafeSetRegistryKeyDword@@YAJPAUHKEY__@@PBD1K@Z
?Impl_OnProgress@CScriptSupplyInfo@@UAEJJJJPAD@Z
?Impl_AskForData@CScriptSupplyInfo@@UAEJJPBDUtagVARIANT@@PAU2@@Z
?GetNAVOCORE_InstanceHandle@@YAPAUHINSTANCE__@@XZ
?_load@CHyperLinkInfo@@UAEXAAVCNAVOArchiveReader@@@Z
?_store@CHyperLinkInfo@@UAEXAAVCNAVOArchiveWriter@@@Z
?GetDispatchMap@CHyperLinkInfo@@MBEPBUAFX_DISPMAP@@XZ
?GetRuntimeClass@CHyperLinkInfo@@UBEPAUCRuntimeClass@@XZ
?StdNotifyOnProgress@@YAJAAV?$SCP@UINotificationSink@@@@JJJPBD@Z
?IStream_CopyTo_WithNotify@@YAJAAV?$SCP@UINotificationSink@@@@AAV?$SCP@UIStream@@@@1PBD_J@Z
?ReadStreamFromFile@@YAJPAVCFile@@AAV?$SCP@UIStream@@@@PAUINotificationSink@@J@Z
?IsNXMTransport@@YA_NXZ
?SetNXMTransport@@YAX_N@Z
?RetrieveError2@CGenericErrorStorage@@QAEJPAPAD@Z







