; navoscript.def : Declares the module parameters for the DLL.

;LIBRARY      "navo2012.script" BASE=0x60320000

EXPORTS
	DllCanUnloadNow PRIVATE
	DllGetClassObject PRIVATE
	DllRegisterServer PRIVATE
	DllUnregisterServer PRIVATE


?SafeInvoke@CScriptUser@@QAE?AW4eInvokeResult@@PB_WPAVCSmartOleVariant@@J1@Z
?_begin_get_stream_and_auto_cache@CCacheUser__@@IAE?AV?$SCP@UIStream@@@@AAJ@Z
?_end_get_stream_and_auto_cache@CCacheUser__@@IAEXJ_N@Z
?GetInterfaceMap@CCacheUser__@@MBEPBUAFX_INTERFACEMAP@@XZ
?Clone@XStream@CCacheUser__@@UAGJPAPAUIStream@@@Z
?Stat@XStream@CCacheUser__@@UAGJPAUtagSTATSTG@@K@Z
?UnlockRegion@XStream@CCacheUser__@@UAGJT_ULARGE_INTEGER@@0K@Z
?LockRegion@XStream@CCacheUser__@@UAGJT_ULARGE_INTEGER@@0K@Z
?Revert@XStream@CCacheUser__@@UAGJXZ
?Commit@XStream@CCacheUser__@@UAGJK@Z
?CopyTo@XStream@CCacheUser__@@UAGJPAUIStream@@T_ULARGE_INTEGER@@PAT4@2@Z
?SetSize@XStream@CCacheUser__@@UAGJT_ULARGE_INTEGER@@@Z
?Seek@XStream@CCacheUser__@@UAGJT_LARGE_INTEGER@@KPAT_ULARGE_INTEGER@@@Z
?Write@XStream@CCacheUser__@@UAGJPBXKPAK@Z
?Read@XStream@CCacheUser__@@UAGJPAXKPAK@Z
?Release@XStream@CCacheUser__@@UAGKXZ
?AddRef@XStream@CCacheUser__@@UAGKXZ
?QueryInterface@XStream@CCacheUser__@@UAGJABU_GUID@@PAPAX@Z
?ScanScriptForProcedures@@YAXPBDAAV?$CArray@UCFunctionInfo@@AAU1@@@0@Z
?__GetIDsOfNames@CScriptUser@@QAEJPAPA_WIPAJ@Z
?__Invoke@CScriptUser@@QAEJJABU_GUID@@KGPAUtagDISPPARAMS@@PAUtagVARIANT@@PAUtagEXCEPINFO@@PAI@Z
?ParseXML@@YA_NAAV?$SCP@VCSAXHandler__@@@@AAV?$SCP@UIStream@@@@AAV?$SCP@UINavoErrorInfo@@@@@Z
?Invoke@CScriptUser@@QAEXPB_WPAVCSmartOleVariant@@J1@Z
??0CCacheManagerUser@@QAE@PBDAAV?$SCP@UICachedData@@@@AAV?$SCP@UIAppDBManager@@@@AAV?$SCP@VCPropertyProvider__@@@@J@Z
?ParseXMLAUTO@@YAXV?$SCP@UIDispatch@@@@V?$SCP@UIStream@@@@@Z
?CleanupScriptEngineEtc@@YAXXZ
?OnInit@CCacheManagerUser@@MAEXXZ
?PrepareDescriptor@CCacheManagerUser@@MAEXXZ
??1CCacheManagerUser@@UAE@XZ
