; navoobj.def : Declares the module parameters for the DLL.

;LIBRARY      "navoobj2008" BASE=0x60260000

EXPORTS
	DllCanUnloadNow PRIVATE
	DllGetClassObject PRIVATE
	DllRegisterServer PRIVATE
	DllUnregisterServer PRIVATE


?get_field@CNEO_user@@QAEXJAAVCSmartOleVariant@@@Z
?set_field@CNEO_user@@QAEXJABVCSmartOleVariant@@@Z
?_has_field_bad_value@CNEO_storage@@QBE_NJ@Z
?get_as_text@CNEO_user@@QAE?AV?$CStringT@DV?$StrTraitMFC_DLL@DV?$ChTraitsCRT@D@ATL@@@@@ATL@@XZ
?add_new_element@CNEO_listuser@@QAE?AV?$SCP@VCNEO_user@@@@XZ
?FromIDispatch@CNEO_listuser@@SA?AV?$SCP@VCNEO_listuser@@@@PAUIDispatch@@@Z
?GetCountAUTO@CNEO_listuser@@QAEJXZ
?MoveAUTO@CNEO_listuser@@QAEXJJ@Z
?ExistsAUTO@CNEO_listuser@@QAEHJ@Z
?delete_all_elements@CNEO_listuser@@QAEXXZ
?delete_element@CNEO_listuser@@QAE_NJ@Z
?insert_new_element@CNEO_listuser@@QAE?AV?$SCP@VCNEO_user@@@@J@Z
?Connect@CNavoObjectCoordinator@@QAEXAAUCDBAP_ConnectionParam@@AAV?$SCP@VCDefinitionManager@@@@@Z
?SetShowUI@CNavoObjectCoordinator@@QAEX_N@Z
??0CNavoObjectCoordinator@@QAE@AAVCNavoException@@@Z
?Disconnect@CNavoObjectCoordinator@@QAEXXZ
?SetCurrentTrans@CNavoObjectCoordinator@@QAEXPAVCNEO_trans@@@Z
?ApplyEnvironment@CNEO_trans@@QAEXAAV?$SCP@VCHyperLinkInfo@@@@@Z
?CreateNewThread@CNavoObjectCoordinator@@QAE?AV?$SCP@VCNEO_thread@@@@XZ
?fwd_create_counted_resource@CNavoObjectCoordinator@@QAE_NPBDJ@Z
?fwd_delete_counted_resource@CNavoObjectCoordinator@@QAE_NPBD@Z
?fwd_use_counted_resource@CNavoObjectCoordinator@@QAEJPBD@Z
?fwd_release_counted_resource@CNavoObjectCoordinator@@QAEXPBD@Z
??0CTreeXMLDataProvider@@QAE@AAV?$SCP@UIStream@@@@@Z
?Add2Menu@CTreeXMLDataProvider@@QAE_NJ@Z
?get_automation_object@CTreeXMLDataProvider@@QAE?AV?$SCP@UIDispatch@@@@XZ
?set_user_modified@CNEO_trans@@QAEX_N@Z
?GetTransaction_DDR@CNEO_trans@@QAEPAVCDispatchDynamicResolver@@XZ
?CreateIterator@CNEO_cursor@@QAE?AV?$SCP@VCNEO_cursorIterator@@@@XZ
?CreateObjectCursor@CNEO_trans@@QAE?AV?$SCP@VCNEO_cursor@@@@JJ@Z
?IsNewAUTO@CNEO_user@@QAEHXZ
?_get_object@CNEO_trans@@QAE?AV?$SCP@VCNEO_user@@@@JJJJ@Z
?_new_object@CNEO_trans@@QAE?AV?$SCP@VCNEO_user@@@@JJJ@Z
?FromIDispatch@CNEO_user@@SA?AV?$SCP@VCNEO_user@@@@PAUIDispatch@@@Z
?SetCurrentTransaction@CNEO_thread@@QAEXPAVCNEO_trans@@@Z
?fwd_get_usage_counted_resource@CNavoObjectCoordinator@@QAEJPBD@Z
?WriteToArchive@CNavoObjectCoordinator@@QAE_NPBD00PAUIStream@@@Z
?ReadFromArchive@CNavoObjectCoordinator@@QAE_NPBD00PAUIStream@@@Z

