; navogal.def : Declares the module parameters for the DLL.

;LIBRARY      "navo2012.gal" BASE=0x601b0000

EXPORTS
    ; Explicit exports can go here


?create@ng_font@@SA?AV?$SCP@Vng_font@@@@PBDJ_N111F@Z
??1ng_double_buffer@@QAE@XZ
?copy_to@ng_double_buffer@@QAEXAAVng_dc@@ABVng_point@@@Z
?copy_from@ng_double_buffer@@QAEXAAVng_dc@@ABVng_point@@@Z
??0ng_double_buffer@@QAE@AAVng_dc@@ABVng_rect@@@Z
?_is_fast_graphics@@YA_NXZ
??1ng_region@@QAE@XZ
?set_clip_region@ng_dc@@QAEXABVng_region@@H@Z
?from_area@ng_region@@QAEXABVng_area@@@Z
??0ng_region@@QAE@XZ
?frame_rect@ng_dc@@QAEXABVng_rect@@JABVng_color@@J@Z
?fill_rect_hg@ng_dc@@QBEXABVng_rect@@ABVng_color@@1@Z
?print_text@ng_dc@@QBEXABVng_rect@@PBDJABVng_color@@AAV?$SCP@Vng_font@@@@@Z
?from_file@ng_image@@SA?AV?$SCP@Vng_image@@@@PBD@Z
?from_resource@ng_image@@SA?AV?$SCP@Vng_image@@@@PAUHINSTANCE__@@J@Z
?from_stream@ng_image@@SA?AV?$SCP@Vng_image@@@@V?$SCP@UIStream@@@@@Z
?measure_string@ng_ic@@QAE?AVng_size@@PBDJJAAV?$SCP@Vng_font@@@@PAJPAH@Z
?fill_rect_vg@ng_dc@@QBEXABVng_rect@@ABVng_color@@1@Z
?in_clip_region@ng_dc@@QBE_NABVng_rect@@@Z
?patblt@ng_dc@@QAEXABVng_rect@@ABVng_color@@K@Z
??0ng_region@@QAE@ABVng_rect@@@Z
?from_clip_region@ng_region@@QAEXAAVng_ic@@@Z
?get_hdc@ng_ic@@QBEPAUHDC__@@XZ
??1ng_dc@@QAE@XZ
??0ng_dc@@QAE@PAUHDC__@@@Z
?draw_image@ng_dc@@QAEXABVng_rect@@ABVng_size@@V?$SCP@Vng_image@@@@W4ng_image_scaling_mode@@W4ng_image_filter@@@Z
?offset@ng_region@@QAEXJJ@Z
?empty@ng_region@@QAEXXZ
?get_width@ng_image@@QBEJXZ
?get_height@ng_image@@QBEJXZ
?get_frame_count@ng_image@@QBEJXZ
?reinit@ng_ic@@QAEXXZ
?bitblt@ng_dc@@QAEXABVng_point@@ABVng_size@@0K@Z
?combine@ng_region@@QAEXAAV1@0H@Z
?is_empty@ng_region@@QBE_NXZ
?from_region@ng_region@@QAEXABV1@@Z
?draw_image_frame@ng_dc@@QAEXABVng_rect@@V?$SCP@Vng_image@@@@W4ng_image_scaling_mode@@J@Z
??1ng_session@@QAE@XZ
??0ng_session@@QAE@XZ
?init@ng_session@@QAEXXZ
?done@ng_session@@QAEXXZ
?_set_fast_graphics@@YAX_N@Z
