; navouidn.def : Declares the module parameters for the DLL.

;LIBRARY      "navoui2008" BASE=0x60340000

EXPORTS
	DllCanUnloadNow PRIVATE
	DllGetClassObject PRIVATE
	DllRegisterServer PRIVATE
	DllUnregisterServer PRIVATE


??4cnui_shortkey@@AAEAAV0@ABV?$CStringT@DV?$StrTraitMFC_DLL@DV?$ChTraitsCRT@D@ATL@@@@@ATL@@@Z
?get_element_on_ident@cned_element_manager@ned@@QBE?AV?$SCP@Vcned_element@ned@@@@J@Z
?set_prop_script@cned_window@ned@@QAEXABV?$CStringT@DV?$StrTraitMFC_DLL@DV?$ChTraitsCRT@D@ATL@@@@@ATL@@@Z
?set_prop_script_nxid@cned_window@ned@@QAEXABV?$CStringT@DV?$StrTraitMFC_DLL@DV?$ChTraitsCRT@D@ATL@@@@@ATL@@@Z
?set_prop_title@cned_page_caption@ned@@QAEXABV?$CStringT@DV?$StrTraitMFC_DLL@DV?$ChTraitsCRT@D@ATL@@@@@ATL@@@Z
?set_decl_position@cned_element@ned@@QAEXABVned_position@2@@Z
?set_prop_disabled@cned_element@ned@@QAEX_N@Z
?set_shortkey@cned_element@ned@@QAEXAAV?$SCP@Vcnui_shortkey@@@@@Z
?set_prop_help_text@cned_element@ned@@QAEXABV?$CStringT@DV?$StrTraitMFC_DLL@DV?$ChTraitsCRT@D@ATL@@@@@ATL@@@Z
?set_prop_tooltip_text@cned_element@ned@@QAEXABV?$CStringT@DV?$StrTraitMFC_DLL@DV?$ChTraitsCRT@D@ATL@@@@@ATL@@@Z
?set_prop_declattrib@cned_element@ned@@QAEXABVned_declattributes@2@_N@Z
?set_prop_redirect@cned_element@ned@@QAEXJ@Z
?_vse_dirty@cned_element@ned@@IAEXXZ
?_size_info_dirty@cned_element@ned@@IAEXXZ
?set_prop_caption@cned_page@ned@@QAEX_N@Z
?create_prev_footer@cned_table@ned@@QAE?AV?$SCP@Vcned_element@ned@@@@J@Z
?create_next_header@cned_table@ned@@QAE?AV?$SCP@Vcned_element@ned@@@@J@Z
?_update_working_rows_count@cned_grid_bodysection@ned@@AAE_NXZ
?set_prop_rowspan@cned_tablecell@ned@@QAEXJ@Z
?set_prop_colspan@cned_tablecell@ned@@QAEXJ@Z
?set_prop_title@cned_tabmanager_item@ned@@QAEXABV?$CStringT@DV?$StrTraitMFC_DLL@DV?$ChTraitsCRT@D@ATL@@@@@ATL@@@Z
?set_prop_password@cned_textedit@ned@@QAEX_N@Z
?set_prop_animate@cned_picture@ned@@QAEXJ@Z
?__navigateto@cned_web@ned@@AAEXXZ
?create_transfer@@YA?AV?$SCP@Vnui_transfer@@@@ABV?$CStringT@DV?$StrTraitMFC_DLL@DV?$ChTraitsCRT@D@ATL@@@@@ATL@@@Z
?add_item@cned_style@ned@@QAEXJV?$SCP@Vcned_styleitem@ned@@@@@Z
?_invalidate_internal_paint@cned_edit__@ned@@IAEXXZ
?fire_user_command@cned_window@ned@@QAE?AW4eInvokeResult@@PBDPAVCSmartOleVariant@@J_N@Z
?get_my_nedaw@cned_element@ned@@QAE?AV?$SCP@Vcnedaw_element@nedaw@@@@XZ
?get_olecontrol_event_name@cned_olecontrol@ned@@QAE_NJAAV?$CStringT@DV?$StrTraitMFC_DLL@DV?$ChTraitsCRT@D@ATL@@@@@ATL@@@Z
?get_command_list@ned_event_command_list@ned@@QAE?AV?$SCP@VCCommandList@@@@XZ
?get_transfer@cned_element_manager@ned@@QAE?AV?$SCP@Vnui_transfer@@@@J@Z
?set_providers@cned_arena@ned@@QAEXABV?$CStringT@DV?$StrTraitMFC_DLL@DV?$ChTraitsCRT@D@ATL@@@@@ATL@@V?$SCP@UIGlobalInterfaceTable@@@@KK@Z
?create_arena@cned_arena_integrator@ned@@QAE?AV?$SCP@Vcned_arena@ned@@@@XZ
?set_prop_display_mode@cned_page@ned@@QAEXW4epage_display_mode@2@@Z
?create_window@cned_arena@ned@@QAE?AV?$SCP@Vcned_window@ned@@@@XZ
?set_current_style@cned_arena@ned@@QAEXABVCSmartOleVariant@@@Z
?_metrics@ned@@YAAAVned_metrics@1@XZ
?_pre_translate_message@cned_arena@ned@@QAE_NAAUtagMSG@@@Z
?setup_defaults@cned_window@ned@@QAEXJ_N@Z
?Window_GetIDsOfNames@cned_window@ned@@QAEJPAPA_WIPAJ@Z
?on_event_zoom_out@cned_window@ned@@QAEXXZ
?attach_os_window@cned_arena@ned@@QAEXPAUHWND__@@@Z
?Show@CCommandList@@QAE?AV?$SCP@VCHyperLinkInfo@@@@VCPoint@@PAUHWND__@@@Z
?_retrieve_command_list@ned@@YA?AV?$SCP@VCCommandList@@@@PAVned_event_info__@1@@Z
?on_event_mouse_endclick@cned_arena@ned@@QAEXABVned_action_mouse@2@AAVned_action_result@2@@Z
?on_event_mouse_over@cned_arena@ned@@QAEXABVned_action_mouse@2@AAVned_action_result@2@@Z
?on_event_mouse_wheel@cned_arena@ned@@QAEXABVned_action_mouse_wheel@2@AAVned_action_result@2@@Z
?on_event_keydown@cned_arena@ned@@QAEXABVned_action_kbd@2@AAVned_action_result@2@@Z
?on_event_olecontrol@cned_arena@ned@@QAEXABVned_action_oleevent@2@AAVned_action_result@2@@Z
?on_event_size_changed@cned_arena@ned@@QAEXAAVng_dc@@ABVng_rect@@@Z
?on_event_timer@cned_arena@ned@@QAEXABVned_action_timer@2@AAVned_action_result@2@@Z
?on_event_paint@cned_arena@ned@@QAEXAAVned_action_paint@2@AAVned_action_result@2@@Z
?init_transaction_ddr@cned_window@ned@@QAEXPAVCDispatchDynamicResolver@@@Z
?on_event_command@cned_arena@ned@@QAEXABVned_action_command@2@AAVned_action_result@2@@Z
?_resolve_container@cned_element@ned@@ABEXXZ
??0cned_arena_integrator@ned@@QAE@XZ
?get_occmaganer@@YAPAVCOccManager@@XZ
?fire_std_command@cned_window@ned@@QAE?AW4eInvokeResult@@JPAVCSmartOleVariant@@J@Z
?Window_Invoke@cned_window@ned@@QAEJJABU_GUID@@KGPAUtagDISPPARAMS@@PAUtagVARIANT@@PAUtagEXCEPINFO@@PAI@Z
?print@cned_window@ned@@QAEJAAVned_action_paint@2@AAVned_action_result@2@ABVcned_paint_param@2@V?$SCP@UIDispatch@@@@@Z
?print_preview@cned_window@ned@@QAEXAAVned_action_paint@2@AAVned_action_result@2@ABVcned_paint_param@2@@Z
?external_invalidate_paint@cned_arena@ned@@QAEXABVng_rect@@@Z
?on_event_mouse_click@cned_arena@ned@@QAEXABVned_action_mouse@2@AAVned_action_result@2@@Z
?on_event_set_cursor@cned_arena@ned@@QAE_NXZ
?move_window_to_top@cned_arena@ned@@QAEXV?$SCP@Vcned_window@ned@@@@@Z
?add_window_to_stack@cned_arena@ned@@QAEXV?$SCP@Vcned_window@ned@@@@PAVcned_window@2@@Z
?remove_window_from_stack@cned_arena@ned@@QAEXPAVcned_window@2@@Z
?on_event_zoom_in@cned_window@ned@@QAEXXZ
?normal_view@cned_window@ned@@QAEXXZ
?get_prop_disabled@cned_element@ned@@QBE_NXZ
?_retrieve_command_list_start_point@ned@@YAAAVng_point@@PAVned_event_info__@1@@Z
?set_prop_backcolor@cned_arena@ned@@QAEXVng_color@@@Z
?set_prop_backcolor2@cned_arena@ned@@QAEXVng_color@@@Z
